; Function Attrs: mustprogress nounwind uwtable
define internal fastcc void @_ZN12_GLOBAL__N_114CXXNameMangler12mangleNumberEl(ptr nocapture noundef nonnull readonly align 8 dereferenceable(280) %0, i64 noundef %1) unnamed_addr #0 align 2 {
  %3 = icmp slt i64 %1, 0
  br i1 %3, label %4, label %16

4:                                                ; preds = %2
  %5 = getelementptr inbounds nuw i8, ptr %0, i64 8
  %6 = load ptr, ptr %5, align 8
  %7 = getelementptr inbounds nuw i8, ptr %6, i64 32
  %8 = load ptr, ptr %7, align 8
  %9 = getelementptr inbounds nuw i8, ptr %6, i64 24
  %10 = load ptr, ptr %9, align 8
  %.not.i = icmp ult ptr %8, %10
  br i1 %.not.i, label %13, label %11

11:                                               ; preds = %4
  %12 = tail call noundef nonnull align 8 dereferenceable(48) ptr @_ZN4llvm11raw_ostream5writeEh(ptr noundef nonnull align 8 dereferenceable(48) %6, i8 noundef zeroext 110) #24
  br label %_ZN4llvm11raw_ostreamlsEc.exit

13:                                               ; preds = %4
  %14 = getelementptr inbounds i8, ptr %8, i64 1
  store ptr %14, ptr %7, align 8
  store i8 110, ptr %8, align 1
  br label %_ZN4llvm11raw_ostreamlsEc.exit

_ZN4llvm11raw_ostreamlsEc.exit:                   ; preds = %11, %13
  %15 = sub nsw i64 0, %1
  br label %16

16:                                               ; preds = %_ZN4llvm11raw_ostreamlsEc.exit, %2
  %.0 = phi i64 [ %15, %_ZN4llvm11raw_ostreamlsEc.exit ], [ %1, %2 ]
  %17 = getelementptr inbounds nuw i8, ptr %0, i64 8
  %18 = load ptr, ptr %17, align 8
  %19 = tail call noundef nonnull align 8 dereferenceable(48) ptr @_ZN4llvm11raw_ostreamlsEl(ptr noundef nonnull align 8 dereferenceable(48) %18, i64 noundef %.0) #24
  ret void
}